ccopy_reg
_reconstructor
p1
(cpylon.case
Case
p2
c__builtin__
object
p3
NtRp4
(dp5
S'branches'
p6
(lp7
g1
(cpylon.case
Branch
p8
g3
NtRp9
(dp10
S'mu_angmin'
p11
F0
sS'mu_angmax'
p12
F0
sS'mu_s_from'
p13
F0
sS'phase_shift'
p14
F0
sS'ratio'
p15
F0
sS'p_from'
p16
F0
sS'q_from'
p17
F0
sS'rate_b'
p18
F40
sS'_i'
p19
I0
sS'online'
p20
I01
sS'ang_min'
p21
F-360
sS'from_bus'
p22
g1
(cpylon.case
Bus
p23
g3
NtRp24
(dp25
S'g_shunt'
p26
F0
sS'v_magnitude_guess'
p27
F1.05
sS'v_magnitude'
p28
F1.05
sS'zone'
p29
I1
sS'area'
p30
I1
sS'v_angle'
p31
F0
sS'v_max'
p32
F1.05
sS'v_angle_guess'
p33
F0
sg19
I0
sS'type'
p34
S'ref'
p35
sS'b_shunt'
p36
F0
sS'v_base'
p37
F230
sS'v_min'
p38
F1.05
sS'q_lmbda'
p39
F0
sS'mu_vmax'
p40
F0
sS'p_demand'
p41
F0
sS'mu_vmin'
p42
F0
sS'_name'
p43
S'Bus-1'
p44
sS'p_lmbda'
p45
F0
sS'position'
p46
(F0
F0
tp47
sS'_bus_id'
p48
I1
sS'q_demand'
p49
F0
sbsS'to_bus'
p50
g1
(g23
g3
NtRp51
(dp52
g26
F0
sg27
F1.05
sg28
F1.05
sg29
I1
sg30
I1
sg31
F0
sg32
F1.05
sg33
F0
sg19
I1
sg34
S'PV'
p53
sg36
F0
sg37
F230
sg38
F1.05
sg39
F0
sg40
F0
sg41
F0
sg42
F0
sg43
S'Bus-2'
p54
sg45
F0
sg46
g47
sg48
I2
sg49
F0
sbsS'q_to'
p55
F0
sS'p_to'
p56
F0
sS'b'
F0.040000000000000001
sS'mu_s_to'
p57
F0
sS'ang_max'
p58
F360
sg43
S'e'
sS'rate_a'
p59
F40
sS'rate_c'
p60
F40
sS'r'
F0.10000000000000001
sS'x'
F0.20000000000000001
sbag1
(g8
g3
NtRp61
(dp62
g11
F0
sg12
F0
sg13
F0
sg14
F0
sg15
F0
sg16
F0
sg17
F0
sg18
F60
sg19
I1
sg20
I01
sg21
F-360
sg22
g24
sg50
g1
(g23
g3
NtRp63
(dp64
g26
F0
sg27
F1
sg28
F1
sg29
I1
sg30
I1
sg31
F0
sg32
F1.05
sg33
F0
sg19
I3
sg34
S'PQ'
p65
sg36
F0
sg37
F230
sg38
F0.94999999999999996
sg39
F0
sg40
F0
sg41
F70
sg42
F0
sg43
S'Bus-4'
p66
sg45
F0
sg46
g47
sg48
I4
sg49
F70
sbsg55
F0
sg56
F0
sS'b'
F0.040000000000000001
sg57
F0
sg58
F360
sg43
S'e_2'
p67
sg59
F60
sg60
F60
sS'r'
F0.050000000000000003
sS'x'
F0.20000000000000001
sbag1
(g8
g3
NtRp68
(dp69
g11
F0
sg12
F0
sg13
F0
sg14
F0
sg15
F0
sg16
F0
sg17
F0
sg18
F40
sg19
I2
sg20
I01
sg21
F-360
sg22
g24
sg50
g1
(g23
g3
NtRp70
(dp71
g26
F0
sg27
F1
sg28
F1
sg29
I1
sg30
I1
sg31
F0
sg32
F1.05
sg33
F0
sg19
I4
sg34
g65
sg36
F0
sg37
F230
sg38
F0.94999999999999996
sg39
F0
sg40
F0
sg41
F70
sg42
F0
sg43
S'Bus-5'
p72
sg45
F0
sg46
g47
sg48
I5
sg49
F70
sbsg55
F0
sg56
F0
sS'b'
F0.059999999999999998
sg57
F0
sg58
F360
sg43
S'e_3'
p73
sg59
F40
sg60
F40
sS'r'
F0.080000000000000002
sS'x'
F0.29999999999999999
sbag1
(g8
g3
NtRp74
(dp75
g11
F0
sg12
F0
sg13
F0
sg14
F0
sg15
F0
sg16
F0
sg17
F0
sg18
F40
sg19
I3
sg20
I01
sg21
F-360
sg22
g51
sg50
g1
(g23
g3
NtRp76
(dp77
g26
F0
sg27
F1.0700000000000001
sg28
F1.0700000000000001
sg29
I1
sg30
I1
sg31
F0
sg32
F1.0700000000000001
sg33
F0
sg19
I2
sg34
g53
sg36
F0
sg37
F230
sg38
F1.0700000000000001
sg39
F0
sg40
F0
sg41
F0
sg42
F0
sg43
S'Bus-3'
p78
sg45
F0
sg46
g47
sg48
I3
sg49
F0
sbsg55
F0
sg56
F0
sS'b'
F0.059999999999999998
sg57
F0
sg58
F360
sg43
S'e_4'
p79
sg59
F40
sg60
F40
sS'r'
F0.050000000000000003
sS'x'
F0.25
sbag1
(g8
g3
NtRp80
(dp81
g11
F0
sg12
F0
sg13
F0
sg14
F0
sg15
F0
sg16
F0
sg17
F0
sg18
F60
sg19
I4
sg20
I01
sg21
F-360
sg22
g51
sg50
g63
sg55
F0
sg56
F0
sS'b'
F0.02
sg57
F0
sg58
F360
sg43
S'e_5'
p82
sg59
F60
sg60
F60
sS'r'
F0.050000000000000003
sS'x'
F0.10000000000000001
sbag1
(g8
g3
NtRp83
(dp84
g11
F0
sg12
F0
sg13
F0
sg14
F0
sg15
F0
sg16
F0
sg17
F0
sg18
F30
sg19
I5
sg20
I01
sg21
F-360
sg22
g51
sg50
g70
sg55
F0
sg56
F0
sS'b'
F0.040000000000000001
sg57
F0
sg58
F360
sg43
S'e_6'
p85
sg59
F30
sg60
F30
sS'r'
F0.10000000000000001
sS'x'
F0.29999999999999999
sbag1
(g8
g3
NtRp86
(dp87
g11
F0
sg12
F0
sg13
F0
sg14
F0
sg15
F0
sg16
F0
sg17
F0
sg18
F90
sg19
I6
sg20
I01
sg21
F-360
sg22
g51
sg50
g1
(g23
g3
NtRp88
(dp89
g26
F0
sg27
F1
sg28
F1
sg29
I1
sg30
I1
sg31
F0
sg32
F1.05
sg33
F0
sg19
I5
sg34
g65
sg36
F0
sg37
F230
sg38
F0.94999999999999996
sg39
F0
sg40
F0
sg41
F70
sg42
F0
sg43
S'Bus-6'
p90
sg45
F0
sg46
g47
sg48
I6
sg49
F70
sbsg55
F0
sg56
F0
sS'b'
F0.050000000000000003
sg57
F0
sg58
F360
sg43
S'e_7'
p91
sg59
F90
sg60
F90
sS'r'
F0.070000000000000007
sS'x'
F0.20000000000000001
sbag1
(g8
g3
NtRp92
(dp93
g11
F0
sg12
F0
sg13
F0
sg14
F0
sg15
F0
sg16
F0
sg17
F0
sg18
F70
sg19
I7
sg20
I01
sg21
F-360
sg22
g76
sg50
g70
sg55
F0
sg56
F0
sS'b'
F0.050000000000000003
sg57
F0
sg58
F360
sg43
S'e_8'
p94
sg59
F70
sg60
F70
sS'r'
F0.12
sS'x'
F0.26000000000000001
sbag1
(g8
g3
NtRp95
(dp96
g11
F0
sg12
F0
sg13
F0
sg14
F0
sg15
F0
sg16
F0
sg17
F0
sg18
F80
sg19
I8
sg20
I01
sg21
F-360
sg22
g76
sg50
g88
sg55
F0
sg56
F0
sS'b'
F0.02
sg57
F0
sg58
F360
sg43
S'e_9'
p97
sg59
F80
sg60
F80
sS'r'
F0.02
sS'x'
F0.10000000000000001
sbag1
(g8
g3
NtRp98
(dp99
g11
F0
sg12
F0
sg13
F0
sg14
F0
sg15
F0
sg16
F0
sg17
F0
sg18
F20
sg19
I9
sg20
I01
sg21
F-360
sg22
g63
sg50
g70
sg55
F0
sg56
F0
sS'b'
F0.080000000000000002
sg57
F0
sg58
F360
sg43
S'e_10'
p100
sg59
F20
sg60
F20
sS'r'
F0.20000000000000001
sS'x'
F0.40000000000000002
sbag1
(g8
g3
NtRp101
(dp102
g11
F0
sg12
F0
sg13
F0
sg14
F0
sg15
F0
sg16
F0
sg17
F0
sg18
F40
sg19
I10
sg20
I01
sg21
F-360
sg22
g70
sg50
g88
sg55
F0
sg56
F0
sS'b'
F0.059999999999999998
sg57
F0
sg58
F360
sg43
S'e_11'
p103
sg59
F40
sg60
F40
sS'r'
F0.10000000000000001
sS'x'
F0.29999999999999999
sbasS'buses'
p104
(lp105
g24
ag51
ag76
ag63
ag70
ag88
asS'base_mva'
p106
F100
sS'generators'
p107
(lp108
g1
(cpylon.generator
Generator
p109
g3
NtRp110
(dp111
S'mu_pmax'
p112
F0
sS'q'
F0
sS'pcost_model'
p113
S'poly'
p114
sS'p_cost'
p115
(F0.0053299999999999997
F11.669
F213.09999999999999
tp116
sS'c_shutdown'
p117
F0
sS'bus'
p118
g24
sS'mu_qmin'
p119
F0
sS'mu_qmax'
p120
F0
sS'mu_pmin'
p121
F0
sg43
S'Generator'
p122
sS'p_min'
p123
F50
sS'p'
F0
sS'q_max'
p124
F100
sg106
F100
sg20
I01
sS'c_startup'
p125
F0
sg28
F1.05
sS'qcost_model'
p126
NsS'q_min'
p127
F-100
sS'p_max'
p128
F200
sS'q_cost'
p129
Nsbag1
(g109
g3
NtRp130
(dp131
g112
F0
sS'q'
F0
sg113
g114
sg115
(F0.0088900000000000003
F10.333
F200
tp132
sg117
F0
sg118
g51
sg119
F0
sg120
F0
sg121
F0
sg43
S'Generator_2'
p133
sg123
F37.5
sS'p'
F50
sg124
F100
sg106
F100
sg20
I01
sg125
F0
sg28
F1.05
sg126
Nsg127
F-100
sg128
F150
sg129
Nsbag1
(g109
g3
NtRp134
(dp135
g112
F0
sS'q'
F0
sg113
g114
sg115
(F0.0074099999999999999
F10.833
F240
tp136
sg117
F0
sg118
g76
sg119
F0
sg120
F0
sg121
F0
sg43
S'Generator_3'
p137
sg123
F45
sS'p'
F60
sg124
F100
sg106
F100
sg20
I01
sg125
F0
sg28
F1.0700000000000001
sg126
Nsg127
F-100
sg128
F180
sg129
Nsbasg43
S'case6ww'
p138
sb.