ccopy_reg
_reconstructor
p1
(cpylon.case
Case
p2
c__builtin__
object
p3
NtRp4
(dp5
S'branches'
p6
(lp7
g1
(cpylon.case
Branch
p8
g3
NtRp9
(dp10
S'mu_angmin'
p11
F0
sS'mu_angmax'
p12
F0
sS'mu_s_from'
p13
F0
sS'phase_shift'
p14
F0
sS'ratio'
p15
F0
sS'p_from'
p16
F0
sS'q_from'
p17
F0
sS'rate_b'
p18
F130
sS'_i'
p19
I0
sS'online'
p20
I01
sS'ang_min'
p21
F-360
sS'from_bus'
p22
g1
(cpylon.case
Bus
p23
g3
NtRp24
(dp25
S'b_shunt'
p26
F0
sS'g_shunt'
p27
F0
sS'v_magnitude_guess'
p28
F1
sS'mu_vmax'
p29
F0
sS'zone'
p30
I1
sS'p_demand'
p31
F0
sS'mu_vmin'
p32
F0
sS'v_angle'
p33
F0
sS'_bus_id'
p34
I1
sS'_name'
p35
S'Bus-1'
p36
sS'v_max'
p37
F1.05
sS'p_lmbda'
p38
F0
sS'v_angle_guess'
p39
F0
sg19
I0
sS'v_base'
p40
F135
sS'v_magnitude'
p41
F1
sS'type'
p42
S'ref'
p43
sS'q_demand'
p44
F0
sS'v_min'
p45
F0.94999999999999996
sS'q_lmbda'
p46
F0
sbsS'to_bus'
p47
g1
(g23
g3
NtRp48
(dp49
g26
F0
sg27
F0
sg28
F1
sg29
F0
sg30
I1
sg31
F5.0448507200000003
sg32
F0
sg33
F0
sg34
I2
sg35
S'Bus-2'
p50
sg37
F1.1000000000000001
sg38
F0
sg39
F0
sg19
I0
sg40
F135
sg41
F1
sg42
S'PV'
p51
sg44
F2.95251632
sg45
F0.94999999999999996
sg46
F0
sbsS'q_to'
p52
F0
sS'p_to'
p53
F0
sS'b'
F0.029999999999999999
sS'mu_s_to'
p54
F0
sS'ang_max'
p55
F360
sg35
S'e'
sS'rate_a'
p56
F10000
sS'rate_c'
p57
F130
sS'r'
F0.02
sS'x'
F0.059999999999999998
sbag1
(g8
g3
NtRp58
(dp59
g11
F0
sg12
F0
sg13
F0
sg14
F0
sg15
F0
sg16
F0
sg17
F0
sg18
F130
sg19
I0
sg20
I01
sg21
F-360
sg22
g24
sg47
g1
(g23
g3
NtRp60
(dp61
g26
F0
sg27
F0
sg28
F1
sg29
F0
sg30
I1
sg31
F22.318233599999999
sg32
F0
sg33
F0
sg34
I3
sg35
S'Bus-3'
p62
sg37
F1.05
sg38
F0
sg39
F0
sg19
I0
sg40
F135
sg41
F1
sg42
S'PQ'
p63
sg44
F11.1591168
sg45
F0.94999999999999996
sg46
F0
sbsg52
F0
sg53
F0
sS'b'
F0.02
sg54
F0
sg55
F360
sg35
S'e_2'
p64
sg56
F10000
sg57
F130
sS'r'
F0.050000000000000003
sS'x'
F0.19
sbag1
(g8
g3
NtRp65
(dp66
g11
F0
sg12
F0
sg13
F0
sg14
F0
sg15
F0
sg16
F0
sg17
F0
sg18
F65
sg19
I0
sg20
I01
sg21
F-360
sg22
g48
sg47
g1
(g23
g3
NtRp67
(dp68
g26
F0
sg27
F0
sg28
F1
sg29
F0
sg30
I1
sg31
F8.8343007999999994
sg32
F0
sg33
F0
sg34
I4
sg35
S'Bus-4'
p69
sg37
F1.05
sg38
F0
sg39
F0
sg19
I0
sg40
F135
sg41
F1
sg42
g63
sg44
F1.8598528000000001
sg45
F0.94999999999999996
sg46
F0
sbsg52
F0
sg53
F0
sS'b'
F0.02
sg54
F0
sg55
F360
sg35
S'e_3'
p70
sg56
F10000
sg57
F65
sS'r'
F0.059999999999999998
sS'x'
F0.17000000000000001
sbag1
(g8
g3
NtRp71
(dp72
g11
F0
sg12
F0
sg13
F0
sg14
F0
sg15
F0
sg16
F0
sg17
F0
sg18
F130
sg19
I0
sg20
I01
sg21
F-360
sg22
g60
sg47
g67
sg52
F0
sg53
F0
sS'b'
F0
sg54
F0
sg55
F360
sg35
S'e_4'
p73
sg56
F10000
sg57
F130
sS'r'
F0.01
sS'x'
F0.040000000000000001
sbag1
(g8
g3
NtRp74
(dp75
g11
F0
sg12
F0
sg13
F0
sg14
F0
sg15
F0
sg16
F0
sg17
F0
sg18
F130
sg19
I0
sg20
I01
sg21
F-360
sg22
g48
sg47
g1
(g23
g3
NtRp76
(dp77
g26
F0.19
sg27
F0
sg28
F1
sg29
F0
sg30
I1
sg31
F0
sg32
F0
sg33
F0
sg34
I5
sg35
S'Bus-5'
p78
sg37
F1.05
sg38
F0
sg39
F0
sg19
I0
sg40
F135
sg41
F1
sg42
g63
sg44
F0
sg45
F0.94999999999999996
sg46
F0
sbsg52
F0
sg53
F0
sS'b'
F0.02
sg54
F0
sg55
F360
sg35
S'e_5'
p79
sg56
F10000
sg57
F130
sS'r'
F0.050000000000000003
sS'x'
F0.20000000000000001
sbag1
(g8
g3
NtRp80
(dp81
g11
F0
sg12
F0
sg13
F0
sg14
F0
sg15
F0
sg16
F0
sg17
F0
sg18
F65
sg19
I0
sg20
I01
sg21
F-360
sg22
g48
sg47
g1
(g23
g3
NtRp82
(dp83
g26
F0
sg27
F0
sg28
F1
sg29
F0
sg30
I1
sg31
F0
sg32
F0
sg33
F0
sg34
I6
sg35
S'Bus-6'
p84
sg37
F1.05
sg38
F0
sg39
F0
sg19
I0
sg40
F135
sg41
F1
sg42
g63
sg44
F0
sg45
F0.94999999999999996
sg46
F0
sbsg52
F0
sg53
F0
sS'b'
F0.02
sg54
F0
sg55
F360
sg35
S'e_6'
p85
sg56
F10000
sg57
F65
sS'r'
F0.059999999999999998
sS'x'
F0.17999999999999999
sbag1
(g8
g3
NtRp86
(dp87
g11
F0
sg12
F0
sg13
F0
sg14
F0
sg15
F0
sg16
F0
sg17
F0
sg18
F90
sg19
I0
sg20
I01
sg21
F-360
sg22
g67
sg47
g82
sg52
F0
sg53
F0
sS'b'
F0
sg54
F0
sg55
F360
sg35
S'e_7'
p88
sg56
F10000
sg57
F90
sS'r'
F0.01
sS'x'
F0.040000000000000001
sbag1
(g8
g3
NtRp89
(dp90
g11
F0
sg12
F0
sg13
F0
sg14
F0
sg15
F0
sg16
F0
sg17
F0
sg18
F70
sg19
I0
sg20
I01
sg21
F-360
sg22
g76
sg47
g1
(g23
g3
NtRp91
(dp92
g26
F0
sg27
F0
sg28
F1
sg29
F0
sg30
I1
sg31
F0
sg32
F0
sg33
F0
sg34
I7
sg35
S'Bus-7'
p93
sg37
F1.05
sg38
F0
sg39
F0
sg19
I0
sg40
F135
sg41
F1
sg42
g51
sg44
F0
sg45
F0.94999999999999996
sg46
F0
sbsg52
F0
sg53
F0
sS'b'
F0.01
sg54
F0
sg55
F360
sg35
S'e_8'
p94
sg56
F10000
sg57
F70
sS'r'
F0.050000000000000003
sS'x'
F0.12
sbag1
(g8
g3
NtRp95
(dp96
g11
F0
sg12
F0
sg13
F0
sg14
F0
sg15
F0
sg16
F0
sg17
F0
sg18
F130
sg19
I0
sg20
I01
sg21
F-360
sg22
g82
sg47
g91
sg52
F0
sg53
F0
sS'b'
F0.01
sg54
F0
sg55
F360
sg35
S'e_9'
p97
sg56
F10000
sg57
F130
sS'r'
F0.029999999999999999
sS'x'
F0.080000000000000002
sbag1
(g8
g3
NtRp98
(dp99
g11
F0
sg12
F0
sg13
F0
sg14
F0
sg15
F0
sg16
F0
sg17
F0
sg18
F32
sg19
I0
sg20
I01
sg21
F-360
sg22
g82
sg47
g1
(g23
g3
NtRp100
(dp101
g26
F0
sg27
F0
sg28
F1
sg29
F0
sg30
I1
sg31
F13.948896
sg32
F0
sg33
F0
sg34
I8
sg35
S'Bus-8'
p102
sg37
F1.05
sg38
F0
sg39
F0
sg19
I0
sg40
F135
sg41
F1
sg42
g63
sg44
F13.948896
sg45
F0.94999999999999996
sg46
F0
sbsg52
F0
sg53
F0
sS'b'
F0
sg54
F0
sg55
F360
sg35
S'e_10'
p103
sg56
F10000
sg57
F32
sS'r'
F0.01
sS'x'
F0.040000000000000001
sbag1
(g8
g3
NtRp104
(dp105
g11
F0
sg12
F0
sg13
F0
sg14
F0
sg15
F0
sg16
F0
sg17
F0
sg18
F65
sg19
I0
sg20
I01
sg21
F-360
sg22
g82
sg47
g1
(g23
g3
NtRp106
(dp107
g26
F0
sg27
F0
sg28
F1
sg29
F0
sg30
I1
sg31
F0
sg32
F0
sg33
F0
sg34
I9
sg35
S'Bus-9'
p108
sg37
F1.05
sg38
F0
sg39
F0
sg19
I0
sg40
F135
sg41
F1
sg42
g63
sg44
F0
sg45
F0.94999999999999996
sg46
F0
sbsg52
F0
sg53
F0
sS'b'
F0
sg54
F0
sg55
F360
sg35
S'e_11'
p109
sg56
F10000
sg57
F65
sS'r'
F0
sS'x'
F0.20999999999999999
sbag1
(g8
g3
NtRp110
(dp111
g11
F0
sg12
F0
sg13
F0
sg14
F0
sg15
F0
sg16
F0
sg17
F0
sg18
F32
sg19
I0
sg20
I01
sg21
F-360
sg22
g82
sg47
g1
(g23
g3
NtRp112
(dp113
g26
F0
sg27
F0
sg28
F1
sg29
F0
sg30
I1
sg31
F6.7419663999999999
sg32
F0
sg33
F0
sg34
I10
sg35
S'Bus-10'
p114
sg37
F1.05
sg38
F0
sg39
F0
sg19
I0
sg40
F135
sg41
F1
sg42
g63
sg44
F2.3248160000000002
sg45
F0.94999999999999996
sg46
F0
sbsg52
F0
sg53
F0
sS'b'
F0
sg54
F0
sg55
F360
sg35
S'e_12'
p115
sg56
F10000
sg57
F32
sS'r'
F0
sS'x'
F0.56000000000000005
sbag1
(g8
g3
NtRp116
(dp117
g11
F0
sg12
F0
sg13
F0
sg14
F0
sg15
F0
sg16
F0
sg17
F0
sg18
F65
sg19
I0
sg20
I01
sg21
F-360
sg22
g106
sg47
g1
(g23
g3
NtRp118
(dp119
g26
F0
sg27
F0
sg28
F1
sg29
F0
sg30
I1
sg31
F0
sg32
F0
sg33
F0
sg34
I11
sg35
S'Bus-11'
p120
sg37
F1.05
sg38
F0
sg39
F0
sg19
I0
sg40
F135
sg41
F1
sg42
g63
sg44
F0
sg45
F0.94999999999999996
sg46
F0
sbsg52
F0
sg53
F0
sS'b'
F0
sg54
F0
sg55
F360
sg35
S'e_13'
p121
sg56
F10000
sg57
F65
sS'r'
F0
sS'x'
F0.20999999999999999
sbag1
(g8
g3
NtRp122
(dp123
g11
F0
sg12
F0
sg13
F0
sg14
F0
sg15
F0
sg16
F0
sg17
F0
sg18
F65
sg19
I0
sg20
I01
sg21
F-360
sg22
g106
sg47
g112
sg52
F0
sg53
F0
sS'b'
F0
sg54
F0
sg55
F360
sg35
S'e_14'
p124
sg56
F10000
sg57
F65
sS'r'
F0
sS'x'
F0.11
sbag1
(g8
g3
NtRp125
(dp126
g11
F0
sg12
F0
sg13
F0
sg14
F0
sg15
F0
sg16
F0
sg17
F0
sg18
F65
sg19
I0
sg20
I01
sg21
F-360
sg22
g67
sg47
g1
(g23
g3
NtRp127
(dp128
g26
F0
sg27
F0
sg28
F1
sg29
F0
sg30
I1
sg31
F13.0189696
sg32
F0
sg33
F0
sg34
I12
sg35
S'Bus-12'
p129
sg37
F1.05
sg38
F0
sg39
F0
sg19
I0
sg40
F135
sg41
F1
sg42
g63
sg44
F8.7180599999999995
sg45
F0.94999999999999996
sg46
F0
sbsg52
F0
sg53
F0
sS'b'
F0
sg54
F0
sg55
F360
sg35
S'e_15'
p130
sg56
F10
sg57
F65
sS'r'
F0
sS'x'
F0.26000000000000001
sbag1
(g8
g3
NtRp131
(dp132
g11
F0
sg12
F0
sg13
F0
sg14
F0
sg15
F0
sg16
F0
sg17
F0
sg18
F65
sg19
I0
sg20
I01
sg21
F-360
sg22
g127
sg47
g1
(g23
g3
NtRp133
(dp134
g26
F0
sg27
F0
sg28
F1
sg29
F0
sg30
I1
sg31
F0
sg32
F0
sg33
F0
sg34
I13
sg35
S'Bus-13'
p135
sg37
F1.1000000000000001
sg38
F0
sg39
F0
sg19
I0
sg40
F135
sg41
F1
sg42
g51
sg44
F0
sg45
F0.94999999999999996
sg46
F0
sbsg52
F0
sg53
F0
sS'b'
F0
sg54
F0
sg55
F360
sg35
S'e_16'
p136
sg56
F10000
sg57
F65
sS'r'
F0
sS'x'
F0.14000000000000001
sbag1
(g8
g3
NtRp137
(dp138
g11
F0
sg12
F0
sg13
F0
sg14
F0
sg15
F0
sg16
F0
sg17
F0
sg18
F32
sg19
I0
sg20
I01
sg21
F-360
sg22
g127
sg47
g1
(g23
g3
NtRp139
(dp140
g26
F0
sg27
F0
sg28
F1
sg29
F0
sg30
I1
sg31
F7.2069295999999996
sg32
F0
sg33
F0
sg34
I14
sg35
S'Bus-14'
p141
sg37
F1.05
sg38
F0
sg39
F0
sg19
I0
sg40
F135
sg41
F1
sg42
g63
sg44
F1.8598528000000001
sg45
F0.94999999999999996
sg46
F0
sbsg52
F0
sg53
F0
sS'b'
F0
sg54
F0
sg55
F360
sg35
S'e_17'
p142
sg56
F10000
sg57
F32
sS'r'
F0.12
sS'x'
F0.26000000000000001
sbag1
(g8
g3
NtRp143
(dp144
g11
F0
sg12
F0
sg13
F0
sg14
F0
sg15
F0
sg16
F0
sg17
F0
sg18
F32
sg19
I0
sg20
I01
sg21
F-360
sg22
g127
sg47
g1
(g23
g3
NtRp145
(dp146
g26
F0
sg27
F0
sg28
F1
sg29
F0
sg30
I1
sg31
F0
sg32
F0
sg33
F0
sg34
I15
sg35
S'Bus-15'
p147
sg37
F1.05
sg38
F0
sg39
F0
sg19
I0
sg40
F135
sg41
F1
sg42
g51
sg44
F0
sg45
F0.94999999999999996
sg46
F0
sbsg52
F0
sg53
F0
sS'b'
F0
sg54
F0
sg55
F360
sg35
S'e_18'
p148
sg56
F10000
sg57
F32
sS'r'
F0.070000000000000007
sS'x'
F0.13
sbag1
(g8
g3
NtRp149
(dp150
g11
F0
sg12
F0
sg13
F0
sg14
F0
sg15
F0
sg16
F0
sg17
F0
sg18
F32
sg19
I0
sg20
I01
sg21
F-360
sg22
g127
sg47
g1
(g23
g3
NtRp151
(dp152
g26
F0
sg27
F0
sg28
F1
sg29
F0
sg30
I1
sg31
F4.0684279999999999
sg32
F0
sg33
F0
sg34
I16
sg35
S'Bus-16'
p153
sg37
F1.05
sg38
F0
sg39
F0
sg19
I0
sg40
F135
sg41
F1
sg42
g63
sg44
F2.0923343999999999
sg45
F0.94999999999999996
sg46
F0
sbsg52
F0
sg53
F0
sS'b'
F0
sg54
F0
sg55
F360
sg35
S'e_19'
p154
sg56
F10000
sg57
F32
sS'r'
F0.089999999999999997
sS'x'
F0.20000000000000001
sbag1
(g8
g3
NtRp155
(dp156
g11
F0
sg12
F0
sg13
F0
sg14
F0
sg15
F0
sg16
F0
sg17
F0
sg18
F16
sg19
I0
sg20
I01
sg21
F-360
sg22
g139
sg47
g145
sg52
F0
sg53
F0
sS'b'
F0
sg54
F0
sg55
F360
sg35
S'e_20'
p157
sg56
F10000
sg57
F16
sS'r'
F0.22
sS'x'
F0.20000000000000001
sbag1
(g8
g3
NtRp158
(dp159
g11
F0
sg12
F0
sg13
F0
sg14
F0
sg15
F0
sg16
F0
sg17
F0
sg18
F16
sg19
I0
sg20
I01
sg21
F-360
sg22
g151
sg47
g1
(g23
g3
NtRp160
(dp161
g26
F0
sg27
F0
sg28
F1
sg29
F0
sg30
I1
sg31
F10.461672
sg32
F0
sg33
F0
sg34
I17
sg35
S'Bus-17'
p162
sg37
F1.05
sg38
F0
sg39
F0
sg19
I0
sg40
F135
sg41
F1
sg42
g63
sg44
F6.7419663999999999
sg45
F0.94999999999999996
sg46
F0
sbsg52
F0
sg53
F0
sS'b'
F0
sg54
F0
sg55
F360
sg35
S'e_21'
p163
sg56
F10000
sg57
F16
sS'r'
F0.080000000000000002
sS'x'
F0.19
sbag1
(g8
g3
NtRp164
(dp165
g11
F0
sg12
F0
sg13
F0
sg14
F0
sg15
F0
sg16
F0
sg17
F0
sg18
F16
sg19
I0
sg20
I01
sg21
F-360
sg22
g145
sg47
g1
(g23
g3
NtRp166
(dp167
g26
F0
sg27
F0
sg28
F1
sg29
F0
sg30
I1
sg31
F3.7197056000000002
sg32
F0
sg33
F0
sg34
I18
sg35
S'Bus-18'
p168
sg37
F1.05
sg38
F0
sg39
F0
sg19
I0
sg40
F135
sg41
F1
sg42
g63
sg44
F1.0461672
sg45
F0.94999999999999996
sg46
F0
sbsg52
F0
sg53
F0
sS'b'
F0
sg54
F0
sg55
F360
sg35
S'e_22'
p169
sg56
F10000
sg57
F16
sS'r'
F0.11
sS'x'
F0.22
sbag1
(g8
g3
NtRp170
(dp171
g11
F0
sg12
F0
sg13
F0
sg14
F0
sg15
F0
sg16
F0
sg17
F0
sg18
F16
sg19
I0
sg20
I01
sg21
F-360
sg22
g166
sg47
g1
(g23
g3
NtRp172
(dp173
g26
F0
sg27
F0
sg28
F1
sg29
F0
sg30
I1
sg31
F11.042876
sg32
F0
sg33
F0
sg34
I19
sg35
S'Bus-19'
p174
sg37
F1.05
sg38
F0
sg39
F0
sg19
I0
sg40
F135
sg41
F1
sg42
g63
sg44
F3.9521872
sg45
F0.94999999999999996
sg46
F0
sbsg52
F0
sg53
F0
sS'b'
F0
sg54
F0
sg55
F360
sg35
S'e_23'
p175
sg56
F10000
sg57
F16
sS'r'
F0.059999999999999998
sS'x'
F0.13
sbag1
(g8
g3
NtRp176
(dp177
g11
F0
sg12
F0
sg13
F0
sg14
F0
sg15
F0
sg16
F0
sg17
F0
sg18
F32
sg19
I0
sg20
I01
sg21
F-360
sg22
g172
sg47
g1
(g23
g3
NtRp178
(dp179
g26
F0
sg27
F0
sg28
F1
sg29
F0
sg30
I1
sg31
F2.5572976000000001
sg32
F0
sg33
F0
sg34
I20
sg35
S'Bus-20'
p180
sg37
F1.05
sg38
F0
sg39
F0
sg19
I0
sg40
F135
sg41
F1
sg42
g63
sg44
F0.81368560000000001
sg45
F0.94999999999999996
sg46
F0
sbsg52
F0
sg53
F0
sS'b'
F0
sg54
F0
sg55
F360
sg35
S'e_24'
p181
sg56
F10000
sg57
F32
sS'r'
F0.029999999999999999
sS'x'
F0.070000000000000007
sbag1
(g8
g3
NtRp182
(dp183
g11
F0
sg12
F0
sg13
F0
sg14
F0
sg15
F0
sg16
F0
sg17
F0
sg18
F32
sg19
I0
sg20
I00
sg21
F-360
sg22
g112
sg47
g178
sg52
F0
sg53
F0
sS'b'
F0
sg54
F0
sg55
F360
sg35
S'e_25'
p184
sg56
F10000
sg57
F32
sS'r'
F0.089999999999999997
sS'x'
F0.20999999999999999
sbag1
(g8
g3
NtRp185
(dp186
g11
F0
sg12
F0
sg13
F0
sg14
F0
sg15
F0
sg16
F0
sg17
F0
sg18
F32
sg19
I0
sg20
I00
sg21
F-360
sg22
g112
sg47
g160
sg52
F0
sg53
F0
sS'b'
F0
sg54
F0
sg55
F360
sg35
S'e_26'
p187
sg56
F10000
sg57
F32
sS'r'
F0.029999999999999999
sS'x'
F0.080000000000000002
sbag1
(g8
g3
NtRp188
(dp189
g11
F0
sg12
F0
sg13
F0
sg14
F0
sg15
F0
sg16
F0
sg17
F0
sg18
F32
sg19
I0
sg20
I01
sg21
F-360
sg22
g112
sg47
g1
(g23
g3
NtRp190
(dp191
g26
F0
sg27
F0
sg28
F1
sg29
F0
sg30
I1
sg31
F3.39036344738
sg32
F0
sg33
F0
sg34
I21
sg35
S'Bus-21'
p192
sg37
F1.05
sg38
F0
sg39
F0
sg19
I0
sg40
F135
sg41
F1
sg42
g63
sg44
F2.1698326063232001
sg45
F0.94999999999999996
sg46
F0
sbsg52
F0
sg53
F0
sS'b'
F0
sg54
F0
sg55
F360
sg35
S'e_27'
p193
sg56
F10000
sg57
F32
sS'r'
F0.029999999999999999
sS'x'
F0.070000000000000007
sbag1
(g8
g3
NtRp194
(dp195
g11
F0
sg12
F0
sg13
F0
sg14
F0
sg15
F0
sg16
F0
sg17
F0
sg18
F32
sg19
I0
sg20
I01
sg21
F-360
sg22
g112
sg47
g1
(g23
g3
NtRp196
(dp197
g26
F0
sg27
F0
sg28
F1
sg29
F0
sg30
I1
sg31
F0
sg32
F0
sg33
F0
sg34
I22
sg35
S'Bus-22'
p198
sg37
F1.1000000000000001
sg38
F0
sg39
F0
sg19
I0
sg40
F135
sg41
F1
sg42
g51
sg44
F0
sg45
F0.94999999999999996
sg46
F0
sbsg52
F0
sg53
F0
sS'b'
F0
sg54
F0
sg55
F360
sg35
S'e_28'
p199
sg56
F10000
sg57
F32
sS'r'
F0.070000000000000007
sS'x'
F0.14999999999999999
sbag1
(g8
g3
NtRp200
(dp201
g11
F0
sg12
F0
sg13
F0
sg14
F0
sg15
F0
sg16
F0
sg17
F0
sg18
F32
sg19
I0
sg20
I01
sg21
F-360
sg22
g190
sg47
g196
sg52
F0
sg53
F0
sS'b'
F0
sg54
F0
sg55
F360
sg35
S'e_29'
p202
sg56
F10000
sg57
F32
sS'r'
F0.01
sS'x'
F0.02
sbag1
(g8
g3
NtRp203
(dp204
g11
F0
sg12
F0
sg13
F0
sg14
F0
sg15
F0
sg16
F0
sg17
F0
sg18
F16
sg19
I0
sg20
I01
sg21
F-360
sg22
g145
sg47
g1
(g23
g3
NtRp205
(dp206
g26
F0
sg27
F0
sg28
F1
sg29
F0
sg30
I1
sg31
F22.318233599999999
sg32
F0
sg33
F0
sg34
I23
sg35
S'Bus-23'
p207
sg37
F1.1000000000000001
sg38
F0
sg39
F0
sg19
I0
sg40
F135
sg41
F1
sg42
g51
sg44
F11.1591168
sg45
F0.94999999999999996
sg46
F0
sbsg52
F0
sg53
F0
sS'b'
F0
sg54
F0
sg55
F360
sg35
S'e_30'
p208
sg56
F10000
sg57
F16
sS'r'
F0.10000000000000001
sS'x'
F0.20000000000000001
sbag1
(g8
g3
NtRp209
(dp210
g11
F0
sg12
F0
sg13
F0
sg14
F0
sg15
F0
sg16
F0
sg17
F0
sg18
F16
sg19
I0
sg20
I01
sg21
F-360
sg22
g196
sg47
g1
(g23
g3
NtRp211
(dp212
g26
F0.040000000000000001
sg27
F0
sg28
F1
sg29
F0
sg30
I1
sg31
F10.1129496
sg32
F0
sg33
F0
sg34
I24
sg35
S'Bus-24'
p213
sg37
F1.05
sg38
F0
sg39
F0
sg19
I0
sg40
F135
sg41
F1
sg42
g63
sg44
F7.7881336000000001
sg45
F0.94999999999999996
sg46
F0
sbsg52
F0
sg53
F0
sS'b'
F0
sg54
F0
sg55
F360
sg35
S'e_31'
p214
sg56
F10000
sg57
F16
sS'r'
F0.12
sS'x'
F0.17999999999999999
sbag1
(g8
g3
NtRp215
(dp216
g11
F0
sg12
F0
sg13
F0
sg14
F0
sg15
F0
sg16
F0
sg17
F0
sg18
F16
sg19
I0
sg20
I01
sg21
F-360
sg22
g205
sg47
g211
sg52
F0
sg53
F0
sS'b'
F0
sg54
F0
sg55
F360
sg35
S'e_32'
p217
sg56
F10
sg57
F16
sS'r'
F0.13
sS'x'
F0.27000000000000002
sbag1
(g8
g3
NtRp218
(dp219
g11
F0
sg12
F0
sg13
F0
sg14
F0
sg15
F0
sg16
F0
sg17
F0
sg18
F16
sg19
I0
sg20
I01
sg21
F-360
sg22
g211
sg47
g1
(g23
g3
NtRp220
(dp221
g26
F0
sg27
F0
sg28
F1
sg29
F0
sg30
I1
sg31
F0
sg32
F0
sg33
F0
sg34
I25
sg35
S'Bus-25'
p222
sg37
F1.05
sg38
F0
sg39
F0
sg19
I0
sg40
F135
sg41
F1
sg42
g63
sg44
F0
sg45
F0.94999999999999996
sg46
F0
sbsg52
F0
sg53
F0
sS'b'
F0
sg54
F0
sg55
F360
sg35
S'e_33'
p223
sg56
F10000
sg57
F16
sS'r'
F0.19
sS'x'
F0.33000000000000002
sbag1
(g8
g3
NtRp224
(dp225
g11
F0
sg12
F0
sg13
F0
sg14
F0
sg15
F0
sg16
F0
sg17
F0
sg18
F16
sg19
I0
sg20
I01
sg21
F-360
sg22
g220
sg47
g1
(g23
g3
NtRp226
(dp227
g26
F0
sg27
F0
sg28
F1
sg29
F0
sg30
I1
sg31
F4.0684279999999999
sg32
F0
sg33
F0
sg34
I26
sg35
S'Bus-26'
p228
sg37
F1.05
sg38
F0
sg39
F0
sg19
I0
sg40
F135
sg41
F1
sg42
g63
sg44
F2.6735384
sg45
F0.94999999999999996
sg46
F0
sbsg52
F0
sg53
F0
sS'b'
F0
sg54
F0
sg55
F360
sg35
S'e_34'
p229
sg56
F10000
sg57
F16
sS'r'
F0.25
sS'x'
F0.38
sbag1
(g8
g3
NtRp230
(dp231
g11
F0
sg12
F0
sg13
F0
sg14
F0
sg15
F0
sg16
F0
sg17
F0
sg18
F16
sg19
I0
sg20
I01
sg21
F-360
sg22
g220
sg47
g1
(g23
g3
NtRp232
(dp233
g26
F0
sg27
F0
sg28
F1
sg29
F0
sg30
I1
sg31
F0
sg32
F0
sg33
F0
sg34
I27
sg35
S'Bus-27'
p234
sg37
F1.1000000000000001
sg38
F0
sg39
F0
sg19
I0
sg40
F135
sg41
F1
sg42
g51
sg44
F0
sg45
F0.94999999999999996
sg46
F0
sbsg52
F0
sg53
F0
sS'b'
F0
sg54
F0
sg55
F360
sg35
S'e_35'
p235
sg56
F10000
sg57
F16
sS'r'
F0.11
sS'x'
F0.20999999999999999
sbag1
(g8
g3
NtRp236
(dp237
g11
F0
sg12
F0
sg13
F0
sg14
F0
sg15
F0
sg16
F0
sg17
F0
sg18
F65
sg19
I0
sg20
I01
sg21
F-360
sg22
g1
(g23
g3
NtRp238
(dp239
g26
F0
sg27
F0
sg28
F1
sg29
F0
sg30
I1
sg31
F0
sg32
F0
sg33
F0
sg34
I28
sg35
S'Bus-28'
p240
sg37
F1.05
sg38
F0
sg39
F0
sg19
I0
sg40
F135
sg41
F1
sg42
g63
sg44
F0
sg45
F0.94999999999999996
sg46
F0
sbsg47
g232
sg52
F0
sg53
F0
sS'b'
F0
sg54
F0
sg55
F360
sg35
S'e_36'
p241
sg56
F10000
sg57
F65
sS'r'
F0
sS'x'
F0.40000000000000002
sbag1
(g8
g3
NtRp242
(dp243
g11
F0
sg12
F0
sg13
F0
sg14
F0
sg15
F0
sg16
F0
sg17
F0
sg18
F16
sg19
I0
sg20
I01
sg21
F-360
sg22
g232
sg47
g1
(g23
g3
NtRp244
(dp245
g26
F0
sg27
F0
sg28
F1
sg29
F0
sg30
I1
sg31
F2.7897791999999999
sg32
F0
sg33
F0
sg34
I29
sg35
S'Bus-29'
p246
sg37
F1.05
sg38
F0
sg39
F0
sg19
I0
sg40
F135
sg41
F1
sg42
g63
sg44
F1.0461672
sg45
F0.94999999999999996
sg46
F0
sbsg52
F0
sg53
F0
sS'b'
F0
sg54
F0
sg55
F360
sg35
S'e_37'
p247
sg56
F10000
sg57
F16
sS'r'
F0.22
sS'x'
F0.41999999999999998
sbag1
(g8
g3
NtRp248
(dp249
g11
F0
sg12
F0
sg13
F0
sg14
F0
sg15
F0
sg16
F0
sg17
F0
sg18
F16
sg19
I0
sg20
I01
sg21
F-360
sg22
g232
sg47
g1
(g23
g3
NtRp250
(dp251
g26
F0
sg27
F0
sg28
F1
sg29
F0
sg30
I1
sg31
F0
sg32
F0
sg33
F0
sg34
I30
sg35
S'Bus-30'
p252
sg37
F1.05
sg38
F0
sg39
F0
sg19
I0
sg40
F135
sg41
F1
sg42
g51
sg44
F0
sg45
F0.94999999999999996
sg46
F0
sbsg52
F0
sg53
F0
sS'b'
F0
sg54
F0
sg55
F360
sg35
S'e_38'
p253
sg56
F10000
sg57
F16
sS'r'
F0.32000000000000001
sS'x'
F0.59999999999999998
sbag1
(g8
g3
NtRp254
(dp255
g11
F0
sg12
F0
sg13
F0
sg14
F0
sg15
F0
sg16
F0
sg17
F0
sg18
F16
sg19
I0
sg20
I01
sg21
F-360
sg22
g244
sg47
g250
sg52
F0
sg53
F0
sS'b'
F0
sg54
F0
sg55
F360
sg35
S'e_39'
p256
sg56
F10000
sg57
F16
sS'r'
F0.23999999999999999
sS'x'
F0.45000000000000001
sbag1
(g8
g3
NtRp257
(dp258
g11
F0
sg12
F0
sg13
F0
sg14
F0
sg15
F0
sg16
F0
sg17
F0
sg18
F32
sg19
I0
sg20
I01
sg21
F-360
sg22
g100
sg47
g238
sg52
F0
sg53
F0
sS'b'
F0.02
sg54
F0
sg55
F360
sg35
S'e_40'
p259
sg56
F10000
sg57
F32
sS'r'
F0.059999999999999998
sS'x'
F0.20000000000000001
sbag1
(g8
g3
NtRp260
(dp261
g11
F0
sg12
F0
sg13
F0
sg14
F0
sg15
F0
sg16
F0
sg17
F0
sg18
F32
sg19
I0
sg20
I01
sg21
F-360
sg22
g82
sg47
g238
sg52
F0
sg53
F0
sS'b'
F0.01
sg54
F0
sg55
F360
sg35
S'e_41'
p262
sg56
F10000
sg57
F32
sS'r'
F0.02
sS'x'
F0.059999999999999998
sbasS'buses'
p263
(lp264
g24
ag48
ag60
ag67
ag76
ag82
ag91
ag100
ag106
ag112
ag118
ag127
ag133
ag139
ag145
ag151
ag160
ag166
ag172
ag178
ag190
ag196
ag205
ag211
ag220
ag226
ag232
ag238
ag244
ag250
asS'base_mva'
p265
F100
sS'generators'
p266
(lp267
g1
(cpylon.generator
Generator
p268
g3
NtRp269
(dp270
S'mu_pmax'
p271
F0
sS'q'
F0
sS'pcost_model'
p272
S'pwl'
p273
sS'p_cost'
p274
(lp275
(F0
F0
tp276
a(F12
F240
tp277
a(F36
F1200
tp278
a(F60
F2400
tp279
asS'c_shutdown'
p280
F0
sS'bus'
p281
g24
sS'mu_pmin'
p282
F0
sg35
S'Generator'
p283
sS'p_min'
p284
F35
sS'p'
F23.539999999999999
sS'q_max'
p285
F60
sg265
F100
sg20
I01
sS'c_startup'
p286
F0
sg41
F1
sS'qcost_model'
p287
NsS'q_min'
p288
F-15
sS'p_max'
p289
F60
sS'q_cost'
p290
Nsbag1
(g268
g3
NtRp291
(dp292
g271
F0
sS'q'
F0
sg272
g273
sg274
(lp293
(F0
F0
tp294
a(F12
F240
tp295
a(F36
F1200
tp296
a(F60
F2400
tp297
asg280
F0
sg281
g48
sg282
F0
sg35
S'Generator_2'
p298
sg284
F12
sS'p'
F60.969999999999999
sg285
F60
sg265
F100
sg20
I01
sg286
F0
sg41
F1
sg287
Nsg288
F-15
sg289
F60
sg290
Nsbag1
(g268
g3
NtRp299
(dp300
g271
F0
sS'q'
F0
sg272
g273
sg274
(lp301
(F0
F0
tp302
a(F12
F240
tp303
a(F36
F1200
tp304
a(F60
F2400
tp305
asg280
F0
sg281
g196
sg282
F0
sg35
S'Generator_3'
p306
sg284
F12
sS'p'
F21.59
sg285
F60
sg265
F100
sg20
I01
sg286
F0
sg41
F1
sg287
Nsg288
F-15
sg289
F60
sg290
Nsbag1
(g268
g3
NtRp307
(dp308
g271
F0
sS'q'
F0
sg272
g273
sg274
(lp309
(F0
F0
tp310
a(F12
F240
tp311
a(F36
F1200
tp312
a(F60
F2400
tp313
asg280
F0
sg281
g232
sg282
F0
sg35
S'Generator_4'
p314
sg284
F12
sS'p'
F26.91
sg285
F60
sg265
F100
sg20
I01
sg286
F0
sg41
F1
sg287
Nsg288
F-15
sg289
F60
sg290
Nsbag1
(g268
g3
NtRp315
(dp316
g271
F0
sS'q'
F0
sg272
g273
sg274
(lp317
(F0
F0
tp318
a(F12
F240
tp319
a(F36
F1200
tp320
a(F60
F2400
tp321
asg280
F0
sg281
g205
sg282
F0
sg35
S'Generator_5'
p322
sg284
F12
sS'p'
F19.199999999999999
sg285
F60
sg265
F100
sg20
I01
sg286
F0
sg41
F1
sg287
Nsg288
F-15
sg289
F60
sg290
Nsbag1
(g268
g3
NtRp323
(dp324
g271
F0
sS'q'
F0
sg272
g273
sg274
(lp325
(F0
F0
tp326
a(F12
F240
tp327
a(F36
F1200
tp328
a(F60
F2400
tp329
asg280
F0
sg281
g133
sg282
F0
sg35
S'Generator_6'
p330
sg284
F12
sS'p'
F37
sg285
F60
sg265
F100
sg20
I01
sg286
F0
sg41
F1
sg287
Nsg288
F-15
sg289
F60
sg290
Nsbag1
(g268
g3
NtRp331
(dp332
g271
F0
sS'q'
F0
sg272
g273
sg274
(lp333
(F-30
F-3000
tp334
a(F-20
F-2000
tp335
a(F-10
F-1000
tp336
a(F0
F0
tp337
asg280
F0
sg281
g91
sg282
F0
sg35
S'Generator_7'
p338
sg284
F-30
sS'p'
F-30
sg285
F0
sg265
F100
sg20
I01
sg286
F0
sg41
F1
sg287
Nsg288
F-15
sg289
F0
sg290
Nsbag1
(g268
g3
NtRp339
(dp340
g271
F0
sS'q'
F0
sg272
g273
sg274
(lp341
(F-30
F-3000
tp342
a(F-20
F-2000
tp343
a(F-10
F-1000
tp344
a(F0
F0
tp345
asg280
F0
sg281
g145
sg282
F0
sg35
S'Generator_8'
p346
sg284
F-30
sS'p'
F-30
sg285
F0
sg265
F100
sg20
I01
sg286
F0
sg41
F1
sg287
Nsg288
F-12
sg289
F0
sg290
Nsbag1
(g268
g3
NtRp347
(dp348
g271
F0
sS'q'
F0
sg272
g273
sg274
(lp349
(F-30
F-3000
tp350
a(F-20
F-2000
tp351
a(F-10
F-1000
tp352
a(F0
F0
tp353
asg280
F0
sg281
g250
sg282
F0
sg35
S'Generator_9'
p354
sg284
F-30
sS'p'
F-30
sg285
F0
sg265
F100
sg20
I01
sg286
F0
sg41
F1
sg287
Nsg288
F-7.5
sg289
F0
sg290
Nsbasg35
S't_auction_case'
p355
sb.